target datalayout = "e-m:e-p270:32:32-p271:32:32-p272:64:64-i64:64-i128:128-f80:128-n8:16:32:64-S128"
target triple = "x86_64-pc-linux-gnu"

@scram_sha_256_iterations = dso_local global i32 4096, align 4
@.str = private unnamed_addr constant [31 x i8] c"could not generate random salt\00", align 1
@.str.1 = private unnamed_addr constant [13 x i8] c"auth-scram.c\00", align 1
@__func__.pg_be_scram_build_secret = private unnamed_addr constant [25 x i8] c"pg_be_scram_build_secret\00", align 1

; Function Attrs: nounwind uwtable
define dso_local ptr @pg_be_scram_build_secret(ptr noundef %0) #0 {
  %2 = alloca ptr, align 8
  %3 = alloca ptr, align 8
  %4 = alloca i32, align 4
  %5 = alloca [16 x i8], align 16
  %6 = alloca ptr, align 8
  %7 = alloca ptr, align 8
  store ptr %0, ptr %2, align 8
  call void @llvm.lifetime.start.p0(i64 8, ptr %3) #9
  call void @llvm.lifetime.start.p0(i64 4, ptr %4) #9
  call void @llvm.lifetime.start.p0(i64 16, ptr %5) #9
  call void @llvm.lifetime.start.p0(i64 8, ptr %6) #9
  call void @llvm.lifetime.start.p0(i64 8, ptr %7) #9
  store ptr null, ptr %7, align 8
  %8 = load ptr, ptr %2, align 8
  %9 = call i32 @pg_saslprep(ptr noundef %8, ptr noundef %3)
  store i32 %9, ptr %4, align 4
  %10 = load i32, ptr %4, align 4
  %11 = icmp eq i32 %10, 0
  br i1 %11, label %12, label %14

12:                                               ; preds = %1
  %13 = load ptr, ptr %3, align 8
  store ptr %13, ptr %2, align 8
  br label %14

14:                                               ; preds = %12, %1
  %15 = getelementptr inbounds [16 x i8], ptr %5, i64 0, i64 0
  %16 = call zeroext i1 @pg_strong_random(ptr noundef %15, i64 noundef 16)
  br i1 %16, label %29, label %17

17:                                               ; preds = %14
  br label %18

18:                                               ; preds = %17
  br i1 true, label %19, label %21

19:                                               ; preds = %18
  %20 = call zeroext i1 @errstart_cold(i32 noundef 21, ptr noundef null) #11
  br i1 %20, label %23, label %26

21:                                               ; preds = %18
  %22 = call zeroext i1 @errstart(i32 noundef 21, ptr noundef null)
  br i1 %22, label %23, label %26

23:                                               ; preds = %21, %19
  %24 = call i32 @errcode(i32 noundef 2600)
  %25 = call i32 (ptr, ...) @errmsg(ptr noundef @.str)
  call void @errfinish(ptr noundef @.str.1, i32 noundef 504, ptr noundef @__func__.pg_be_scram_build_secret)
  br label %26

26:                                               ; preds = %23, %21, %19
  unreachable

27:                                               ; No predecessors!
  br label %28

28:                                               ; preds = %27
  br label %29

29:                                               ; preds = %28, %14
  %30 = getelementptr inbounds [16 x i8], ptr %5, i64 0, i64 0
  %31 = load i32, ptr @scram_sha_256_iterations, align 4
  %32 = load ptr, ptr %2, align 8
  %33 = call ptr @scram_build_secret(i32 noundef 3, i32 noundef 32, ptr noundef %30, i32 noundef 16, i32 noundef %31, ptr noundef %32, ptr noundef %7)
  store ptr %33, ptr %6, align 8
  %34 = load ptr, ptr %3, align 8
  %35 = icmp ne ptr %34, null
  br i1 %35, label %36, label %38

36:                                               ; preds = %29
  %37 = load ptr, ptr %3, align 8
  call void @pfree(ptr noundef %37)
  br label %38

38:                                               ; preds = %36, %29
  %39 = load ptr, ptr %6, align 8
  call void @llvm.lifetime.end.p0(i64 8, ptr %7) #9
  call void @llvm.lifetime.end.p0(i64 8, ptr %6) #9
  call void @llvm.lifetime.end.p0(i64 16, ptr %5) #9
  call void @llvm.lifetime.end.p0(i64 4, ptr %4) #9
  call void @llvm.lifetime.end.p0(i64 8, ptr %3) #9
  ret ptr %39
}