; Function Attrs: nounwind uwtable
define dso_local ptr @pg_be_scram_build_secret(ptr noundef %0) local_unnamed_addr #0 {
  %2 = alloca ptr, align 8
  %3 = alloca [16 x i8], align 16
  %4 = alloca ptr, align 8
  call void @llvm.lifetime.start.p0(i64 8, ptr nonnull %2) #13
  call void @llvm.lifetime.start.p0(i64 16, ptr nonnull %3) #13
  call void @llvm.lifetime.start.p0(i64 8, ptr nonnull %4) #13
  store ptr null, ptr %4, align 8
  %5 = call i32 @pg_saslprep(ptr noundef %0, ptr noundef nonnull %2) #13
  %6 = load ptr, ptr %2, align 8
  %7 = call zeroext i1 @pg_strong_random(ptr noundef nonnull %3, i64 noundef 16) #13
  br i1 %7, label %12, label %8

8:                                                ; preds = %1
  %9 = call zeroext i1 @errstart_cold(i32 noundef 21, ptr noundef null) #15
  call void @llvm.assume(i1 %9)
  %10 = call i32 @errcode(i32 noundef 2600) #13
  %11 = call i32 (ptr, ...) @errmsg(ptr noundef nonnull @.str) #13
  call void @errfinish(ptr noundef nonnull @.str.1, i32 noundef 504, ptr noundef nonnull @__func__.pg_be_scram_build_secret) #13
  unreachable

12:                                               ; preds = %1
  %13 = icmp eq i32 %5, 0
  %spec.select = select i1 %13, ptr %6, ptr %0
  %14 = load i32, ptr @scram_sha_256_iterations, align 4
  %15 = call ptr @scram_build_secret(i32 noundef 3, i32 noundef 32, ptr noundef nonnull %3, i32 noundef 16, i32 noundef %14, ptr noundef %spec.select, ptr noundef nonnull %4) #13
  %16 = load ptr, ptr %2, align 8
  %.not = icmp eq ptr %16, null
  br i1 %.not, label %18, label %17

17:                                               ; preds = %12
  call void @pfree(ptr noundef nonnull %16) #13
  br label %18

18:                                               ; preds = %17, %12
  call void @llvm.lifetime.end.p0(i64 8, ptr nonnull %4) #13
  call void @llvm.lifetime.end.p0(i64 16, ptr nonnull %3) #13
  call void @llvm.lifetime.end.p0(i64 8, ptr nonnull %2) #13
  ret ptr %15
}